Certificate:
    Data:
        Version: 3 (0x2)
        Serial Number: 1 (0x1)
        Signature Algorithm: md5WithRSAEncryption
        Issuer: C=TW, ST=Taipei, L=Taipei, O=Thecus Technology Corp., OU=dummy_ca, CN=dummy_ca.thecus.com/emailAddress=support@thecus.com
        Validity
            Not Before: Oct 31 03:33:39 2005 GMT
            Not After : Oct 29 03:33:39 2015 GMT
        Subject: C=TW, ST=Taipei, O=Thecus Technology Corp., CN=n4100/emailAddress=support@thecus.com
        Subject Public Key Info:
            Public Key Algorithm: rsaEncryption
            RSA Public Key: (1024 bit)
                Modulus (1024 bit):
                    00:bd:fc:15:a6:f5:b7:b9:e7:cb:26:e8:b0:a3:c5:
                    99:19:c3:0b:ed:5c:51:99:bb:87:0a:27:1f:3f:8b:
                    0d:0c:a3:8b:fc:da:cf:52:d5:81:4e:c9:33:50:e9:
                    72:a2:b6:cf:6b:c9:2d:3f:5b:fc:23:2b:94:63:cf:
                    f3:b6:6d:d1:b6:af:f4:a3:3a:61:13:ef:19:bf:7e:
                    27:7a:97:be:4f:8b:41:d4:a6:a1:56:eb:d7:3e:3b:
                    5a:d0:3b:58:da:96:67:4a:57:b9:a5:3e:7f:55:43:
                    c6:39:2e:df:11:58:ce:e5:7e:65:da:29:e2:41:14:
                    59:e4:09:46:65:4a:49:21:79
                Exponent: 65537 (0x10001)
        X509v3 extensions:
            X509v3 Basic Constraints: 
                CA:FALSE
            Netscape Cert Type: 
                SSL Server
            Netscape Comment: 
                OpenSSL Generated Server Certificate
            X509v3 Subject Key Identifier: 
                3D:BC:CD:AE:43:5B:D9:4B:81:C5:D6:9E:17:79:EF:B6:B2:CA:70:74
            X509v3 Authority Key Identifier: 
                keyid:C5:37:98:50:88:23:23:C7:8C:2E:2D:89:B5:2A:FD:35:AC:89:24:20
                DirName:/C=TW/ST=Taipei/L=Taipei/O=Thecus Technology Corp./OU=dummy_ca/CN=dummy_ca.thecus.com/emailAddress=support@thecus.com
                serial:00

    Signature Algorithm: md5WithRSAEncryption
        cb:03:a8:85:92:2c:48:4b:62:ae:85:2e:0b:62:dc:7a:cd:83:
        5b:05:57:b5:0b:19:6c:ee:da:5d:fb:41:86:07:cc:e1:33:a7:
        ab:4d:79:a9:52:32:5a:b2:eb:de:9b:33:aa:7c:8b:5d:c8:e1:
        06:ee:48:0a:3d:97:37:3d:06:67:db:57:f0:0d:59:47:d4:69:
        91:7a:82:e9:ea:00:e4:21:44:33:27:00:45:a6:ea:e4:b2:29:
        e1:2b:42:8d:0c:b6:ad:7e:ce:62:22:b0:5f:01:df:50:bc:b7:
        d0:de:78:41:7d:61:77:41:7d:b6:42:63:3d:e5:3c:0b:53:24:
        ae:46
-----BEGIN CERTIFICATE-----
MIID3DCCA0WgAwIBAgIBATANBgkqhkiG9w0BAQQFADCBpTELMAkGA1UEBhMCVFcx
DzANBgNVBAgTBlRhaXBlaTEPMA0GA1UEBxMGVGFpcGVpMSAwHgYDVQQKExdUaGVj
dXMgVGVjaG5vbG9neSBDb3JwLjERMA8GA1UECxQIZHVtbXlfY2ExHDAaBgNVBAMU
E2R1bW15X2NhLnRoZWN1cy5jb20xITAfBgkqhkiG9w0BCQEWEnN1cHBvcnRAdGhl
Y3VzLmNvbTAeFw0wNTEwMzEwMzMzMzlaFw0xNTEwMjkwMzMzMzlaMHMxCzAJBgNV
BAYTAlRXMQ8wDQYDVQQIEwZUYWlwZWkxIDAeBgNVBAoTF1RoZWN1cyBUZWNobm9s
b2d5IENvcnAuMQ4wDAYDVQQDEwVuNDEwMDEhMB8GCSqGSIb3DQEJARYSc3VwcG9y
dEB0aGVjdXMuY29tMIGfMA0GCSqGSIb3DQEBAQUAA4GNADCBiQKBgQC9/BWm9be5
58sm6LCjxZkZwwvtXFGZu4cKJx8/iw0Mo4v82s9S1YFOyTNQ6XKits9ryS0/W/wj
K5Rjz/O2bdG2r/SjOmET7xm/fid6l75Pi0HUpqFW69c+O1rQO1jalmdKV7mlPn9V
Q8Y5Lt8RWM7lfmXaKeJBFFnkCUZlSkkheQIDAQABo4IBSzCCAUcwCQYDVR0TBAIw
ADARBglghkgBhvhCAQEEBAMCBkAwMwYJYIZIAYb4QgENBCYWJE9wZW5TU0wgR2Vu
ZXJhdGVkIFNlcnZlciBDZXJ0aWZpY2F0ZTAdBgNVHQ4EFgQUPbzNrkNb2UuBxdae
F3nvtrLKcHQwgdIGA1UdIwSByjCBx4AUxTeYUIgjI8eMLi2JtSr9NayJJCChgauk
gagwgaUxCzAJBgNVBAYTAlRXMQ8wDQYDVQQIEwZUYWlwZWkxDzANBgNVBAcTBlRh
aXBlaTEgMB4GA1UEChMXVGhlY3VzIFRlY2hub2xvZ3kgQ29ycC4xETAPBgNVBAsU
CGR1bW15X2NhMRwwGgYDVQQDFBNkdW1teV9jYS50aGVjdXMuY29tMSEwHwYJKoZI
hvcNAQkBFhJzdXBwb3J0QHRoZWN1cy5jb22CAQAwDQYJKoZIhvcNAQEEBQADgYEA
ywOohZIsSEtiroUuC2Lces2DWwVXtQsZbO7aXftBhgfM4TOnq015qVIyWrLr3psz
qnyLXcjhBu5ICj2XNz0GZ9tX8A1ZR9RpkXqC6eoA5CFEMycARabq5LIp4StCjQy2
rX7OYiKwXwHfULy30N54QX1hd0F9tkJjPeU8C1MkrkY=
-----END CERTIFICATE-----
